; Function Attrs: mustprogress uwtable
define void @_ZN5faiss35IndexIVFProductLocalSearchQuantizerC2EPNS_5IndexEmmmmmNS_10MetricTypeENS_17AdditiveQuantizer13Search_type_tE(ptr noundef nonnull align 8 dereferenceable(624) %0, ptr noundef %1, i64 noundef %2, i64 noundef %3, i64 noundef %4, i64 noundef %5, i64 noundef %6, i32 noundef %7, i32 noundef %8) unnamed_addr #2 align 2 personality ptr @__gxx_personality_v0 {
  store ptr getelementptr inbounds ({ [35 x ptr], [6 x ptr] }, ptr @_ZTVN5faiss35IndexIVFProductLocalSearchQuantizerE, i64 0, i32 0, i64 2), ptr %0, align 8
  %10 = getelementptr inbounds i8, ptr %0, i64 40
  store ptr getelementptr inbounds ({ [35 x ptr], [6 x ptr] }, ptr @_ZTVN5faiss35IndexIVFProductLocalSearchQuantizerE, i64 0, i32 1, i64 2), ptr %10, align 8
  %11 = getelementptr inbounds i8, ptr %0, i64 280
  tail call void @_ZN5faiss8IndexIVFC2EPNS_5IndexEmmmNS_10MetricTypeE(ptr noundef nonnull align 8 dereferenceable(257) %0, ptr noundef %1, i64 noundef %2, i64 noundef %3, i64 noundef 0, i32 noundef %7)
  %12 = getelementptr inbounds i8, ptr %0, i64 264
  store ptr %11, ptr %12, align 8
  %13 = getelementptr inbounds i8, ptr %0, i64 272
  store i32 0, ptr %13, align 8
  %14 = getelementptr inbounds i8, ptr %0, i64 256
  store i8 1, ptr %14, align 8
  store ptr getelementptr inbounds ({ [35 x ptr], [6 x ptr] }, ptr @_ZTVN5faiss35IndexIVFProductLocalSearchQuantizerE, i64 0, i32 0, i64 2), ptr %0, align 8
  store ptr getelementptr inbounds ({ [35 x ptr], [6 x ptr] }, ptr @_ZTVN5faiss35IndexIVFProductLocalSearchQuantizerE, i64 0, i32 1, i64 2), ptr %10, align 8
  invoke void @_ZN5faiss27ProductLocalSearchQuantizerC1EmmmmNS_17AdditiveQuantizer13Search_type_tE(ptr noundef nonnull align 8 dereferenceable(344) %11, i64 noundef %2, i64 noundef %4, i64 noundef %5, i64 noundef %6, i32 noundef %8)
          to label %15 unwind label %22

15:                                               ; preds = %9
  %16 = getelementptr inbounds i8, ptr %0, i64 296
  %17 = load i64, ptr %16, align 8
  %18 = getelementptr inbounds i8, ptr %0, i64 136
  %19 = load ptr, ptr %18, align 8
  %20 = getelementptr inbounds i8, ptr %19, i64 16
  store i64 %17, ptr %20, align 8
  %21 = getelementptr inbounds i8, ptr %0, i64 152
  store i64 %17, ptr %21, align 8
  ret void

22:                                               ; preds = %9
  %23 = landingpad { ptr, i32 }
          cleanup
  tail call void @_ZN5faiss8IndexIVFD2Ev(ptr noundef nonnull align 8 dereferenceable(257) %0) #9
  resume { ptr, i32 } %23
}